; Function Attrs: mustprogress nofree norecurse nosync nounwind willreturn memory(argmem: write) uwtable
define dso_local void @_ZN14CxxBmiLocation7PrivateEv(ptr dead_on_unwind noalias writable sret(%struct.CxxBmiLocation) align 8 %0) local_unnamed_addr #3 align 2 personality ptr @__gxx_personality_v0 {
_ZNSt7__cxx1112basic_stringIcSt11char_traitsIcESaIcEED2Ev.exit:
  %1 = getelementptr inbounds nuw i8, ptr %0, i64 16
  store ptr %1, ptr %0, align 8, !tbaa !9
  store i8 0, ptr %1, align 8
  %2 = getelementptr inbounds nuw i8, ptr %0, i64 8
  store i64 0, ptr %2, align 8, !tbaa !16
  %3 = getelementptr inbounds nuw i8, ptr %0, i64 32
  store i8 1, ptr %3, align 8, !tbaa !4
  ret void
}